Certificate:
    Data:
        Version: 3 (0x2)
        Serial Number: 2 (0x2)
    Signature Algorithm: sha256WithRSAEncryption
        Issuer: C=CN, ST=Beijing, L=Shijingshan, O=CYOU, OU=Engine, CN=Bohge/emailAddress=bohge@163.com
        Validity
            Not Before: Jul  7 09:47:03 2016 GMT
            Not After : Jul  7 09:47:03 2017 GMT
        Subject: C=CN, ST=Beijing, O=CYOU, OU=Engine, CN=Bohge/emailAddress=bohge@163.com
        Subject Public Key Info:
            Public Key Algorithm: rsaEncryption
                Public-Key: (1024 bit)
                Modulus:
                    00:a5:21:ef:b5:95:51:97:43:40:dd:0b:6a:ad:8c:
                    1b:47:58:eb:a4:ff:b8:06:18:2a:6c:73:1b:ec:96:
                    bf:71:50:df:37:1b:4a:98:48:c2:b5:45:fb:e5:d6:
                    1a:79:66:f8:9e:01:4b:dd:6c:35:de:81:39:e3:25:
                    6e:57:0f:d3:68:92:d3:e6:d3:98:ef:2c:3b:ea:03:
                    77:9b:71:cd:7f:aa:d8:40:2b:73:dc:9e:20:f5:c8:
                    bf:99:4d:16:31:6b:e9:36:bb:f7:ba:19:a8:2a:f2:
                    9e:44:8c:5e:35:be:0f:c2:21:49:e5:88:8a:90:9d:
                    70:ba:93:26:63:db:13:d3:d9
                Exponent: 65537 (0x10001)
        X509v3 extensions:
            X509v3 Basic Constraints: 
                CA:FALSE
            Netscape Comment: 
                OpenSSL Generated Certificate
            X509v3 Subject Key Identifier: 
                7D:5E:BD:68:DC:05:F4:AB:06:78:DE:CA:AF:67:90:A5:DF:E3:81:48
            X509v3 Authority Key Identifier: 
                keyid:06:8A:04:F3:BF:10:29:41:98:D6:7F:27:FA:DD:D5:19:1C:AA:54:87

    Signature Algorithm: sha256WithRSAEncryption
         9c:4d:b7:2f:7a:d2:6f:c2:46:b0:7a:dc:c1:c6:8b:e0:b3:31:
         e2:41:c8:cc:4b:b3:00:26:c8:ed:da:15:cf:bf:05:11:07:ef:
         38:bc:13:60:ea:6b:a7:8f:55:7f:8a:c6:22:a9:74:6e:54:40:
         eb:48:37:5a:3a:99:44:67:13:fe:59:f9:22:7e:c1:ae:df:01:
         1f:9f:80:14:f8:52:2a:b6:cc:f8:d0:09:8c:aa:f2:88:6b:e5:
         7b:4a:4c:44:3b:2f:c7:1b:8b:ff:0e:92:c4:25:25:32:0c:8c:
         c9:dc:49:ed:ad:d3:d4:02:b9:ee:4c:92:ac:0a:77:8f:a7:15:
         8d:fa
-----BEGIN CERTIFICATE-----
MIIC4jCCAkugAwIBAgIBAjANBgkqhkiG9w0BAQsFADCBgzELMAkGA1UEBhMCQ04x
EDAOBgNVBAgMB0JlaWppbmcxFDASBgNVBAcMC1NoaWppbmdzaGFuMQ0wCwYDVQQK
DARDWU9VMQ8wDQYDVQQLDAZFbmdpbmUxDjAMBgNVBAMMBUJvaGdlMRwwGgYJKoZI
hvcNAQkBFg1ib2hnZUAxNjMuY29tMB4XDTE2MDcwNzA5NDcwM1oXDTE3MDcwNzA5
NDcwM1owbTELMAkGA1UEBhMCQ04xEDAOBgNVBAgMB0JlaWppbmcxDTALBgNVBAoM
BENZT1UxDzANBgNVBAsMBkVuZ2luZTEOMAwGA1UEAwwFQm9oZ2UxHDAaBgkqhkiG
9w0BCQEWDWJvaGdlQDE2My5jb20wgZ8wDQYJKoZIhvcNAQEBBQADgY0AMIGJAoGB
AKUh77WVUZdDQN0Laq2MG0dY66T/uAYYKmxzG+yWv3FQ3zcbSphIwrVF++XWGnlm
+J4BS91sNd6BOeMlblcP02iS0+bTmO8sO+oDd5txzX+q2EArc9yeIPXIv5lNFjFr
6Ta797oZqCrynkSMXjW+D8IhSeWIipCdcLqTJmPbE9PZAgMBAAGjezB5MAkGA1Ud
EwQCMAAwLAYJYIZIAYb4QgENBB8WHU9wZW5TU0wgR2VuZXJhdGVkIENlcnRpZmlj
YXRlMB0GA1UdDgQWBBR9Xr1o3AX0qwZ43sqvZ5Cl3+OBSDAfBgNVHSMEGDAWgBQG
igTzvxApQZjWfyf63dUZHKpUhzANBgkqhkiG9w0BAQsFAAOBgQCcTbcvetJvwkaw
etzBxovgszHiQcjMS7MAJsjt2hXPvwURB+84vBNg6munj1V/isYiqXRuVEDrSDda
OplEZxP+WfkifsGu3wEfn4AU+FIqtsz40AmMqvKIa+V7SkxEOy/HG4v/DpLEJSUy
DIzJ3EntrdPUArnuTJKsCnePpxWN+g==
-----END CERTIFICATE-----
